; Function Attrs: mustprogress uwtable
define void @Z3_set_ast_print_mode(ptr noundef %0, i32 noundef %1) local_unnamed_addr #3 personality ptr @__gxx_personality_v0 {
  %3 = atomicrmw xchg ptr @g_z3_log_enabled, i8 0 seq_cst, align 1
  %4 = trunc i8 %3 to i1
  br i1 %4, label %5, label %10

5:                                                ; preds = %2
  invoke void @_Z25log_Z3_set_ast_print_modeP11_Z3_context17Z3_ast_print_mode(ptr noundef %0, i32 noundef %1)
          to label %13 unwind label %_ZN10z3_log_ctxD2Ev.exit

_ZN10z3_log_ctxD2Ev.exit:                         ; preds = %5
  %6 = landingpad { ptr, i32 }
          cleanup
          catch ptr @_ZTI12z3_exception
  %7 = extractvalue { ptr, i32 } %6, 1
  store atomic i8 1, ptr @g_z3_log_enabled seq_cst, align 1
  %8 = tail call i32 @llvm.eh.typeid.for.p0(ptr nonnull @_ZTI12z3_exception) #28
  %9 = icmp eq i32 %7, %8
  br i1 %9, label %16, label %22

10:                                               ; preds = %2
  %11 = getelementptr inbounds nuw i8, ptr %0, i64 1568
  store i32 0, ptr %11, align 8, !tbaa !248
  %12 = getelementptr inbounds nuw i8, ptr %0, i64 1616
  store i32 %1, ptr %12, align 8, !tbaa !249
  br label %_ZN10z3_log_ctxD2Ev.exit12

13:                                               ; preds = %5
  %14 = getelementptr inbounds nuw i8, ptr %0, i64 1568
  store i32 0, ptr %14, align 8, !tbaa !248
  %15 = getelementptr inbounds nuw i8, ptr %0, i64 1616
  store i32 %1, ptr %15, align 8, !tbaa !249
  store atomic i8 1, ptr @g_z3_log_enabled seq_cst, align 1
  br label %_ZN10z3_log_ctxD2Ev.exit12

16:                                               ; preds = %_ZN10z3_log_ctxD2Ev.exit
  %17 = extractvalue { ptr, i32 } %6, 0
  %18 = tail call ptr @__cxa_begin_catch(ptr %17) #28
  invoke void @_ZN3api7context16handle_exceptionER12z3_exception(ptr noundef nonnull align 8 dereferenceable(3056) %0, ptr noundef nonnull align 8 dereferenceable(8) %18)
          to label %19 unwind label %20

19:                                               ; preds = %16
  tail call void @__cxa_end_catch()
  br label %_ZN10z3_log_ctxD2Ev.exit12

20:                                               ; preds = %16
  %21 = landingpad { ptr, i32 }
          cleanup
  invoke void @__cxa_end_catch()
          to label %22 unwind label %23

_ZN10z3_log_ctxD2Ev.exit12:                       ; preds = %13, %10, %19
  ret void

22:                                               ; preds = %20, %_ZN10z3_log_ctxD2Ev.exit
  %.merged = phi { ptr, i32 } [ %6, %_ZN10z3_log_ctxD2Ev.exit ], [ %21, %20 ]
  resume { ptr, i32 } %.merged

23:                                               ; preds = %20
  %24 = landingpad { ptr, i32 }
          catch ptr null
  %25 = extractvalue { ptr, i32 } %24, 0
  tail call void @__clang_call_terminate(ptr %25) #32
  unreachable
}